; Function Attrs: mustprogress nofree norecurse nosync nounwind willreturn memory(argmem: read) uwtable
define noundef double @_ZNK10open_spiel11pathfinding15PathfindingGame10MinUtilityEv(ptr nocapture noundef nonnull readonly align 8 dereferenceable(424) %0) unnamed_addr #11 align 2 {
  %2 = getelementptr inbounds nuw i8, ptr %0, i64 372
  %3 = load i32, ptr %2, align 4
  %4 = sitofp i32 %3 to double
  %5 = getelementptr inbounds nuw i8, ptr %0, i64 392
  %6 = load double, ptr %5, align 8
  %7 = tail call double @llvm.fmuladd.f64(double %4, double %6, double 0xBEB0C6F7A0000000)
  ret double %7
}